(dp0
S'bwh15'
p1
(lp2
F19.23425
aF62.8695
asS'bwh14'
p3
(lp4
sS'bwh17'
p5
(lp6
sS'bwh16'
p7
(lp8
sS'bwh11'
p9
(lp10
sS'bwh10'
p11
(lp12
F22.953666666666667
aF10.639000000000001
aF10.318666666666667
asS'bwh13'
p13
(lp14
F99.50500000000001
aF37.92166666666667
aF143.17166666666665
aF144.42166666666665
aF29.005
aF188.65833333333333
aF70.25500000000001
aF68.58833333333334
aF52.823499999999996
aF36.17166666666667
aF42.595
aF82.00500000000001
aF39.33833333333334
aF41.083333333333336
aF13.298416666666666
aF26.213833333333334
aF87.8675
aF31.4225
aF22.288083333333336
aF96.33833333333334
asS'bwh12'
p15
(lp16
sS'bwh19'
p17
(lp18
sS'bwh18'
p19
(lp20
sS'bi29'
p21
(lp22
F21.22941666666667
aF18.455750000000002
aF16.33833333333333
aF19.3655
aF12.742666666666667
aF34.64725
aF24.980666666666664
asS'bi28'
p23
(lp24
sS'ynh47'
p25
(lp26
sS'bi21'
p27
(lp28
F15.910083333333334
aF62.033
aF18.755
aF10.75975
aF80.42933333333333
aF15.254999999999999
aF12.254999999999999
asS'bi22'
p29
(lp30
sS'bi26'
p31
(lp32
F52.0765
aF108.67991666666667
aF71.04725
aF45.443666666666665
aF15.971416666666666
aF14.692499999999999
aF25.837833333333332
aF93.44766666666666
aF68.62933333333334
aF13.808083333333334
aF46.241
aF75.43924999999999
aF36.26225
aF10.238499999999998
aF55.44941666666667
aF82.87791666666666
asS'bi46'
p33
(lp34
sS'bi45'
p35
(lp36
sS'bi44'
p37
(lp38
sS'bi43'
p39
(lp40
F118.98566666666667
aF15.850333333333333
aF73.29508333333334
aF100.22575
aF11.524166666666668
aF37.3545
asS'bi58'
p41
(lp42
F151.07516666666666
aF24.274916666666666
aF328.575
aF38.473499999999994
aF47.18416666666667
aF95.65341666666667
aF39.47833333333333
aF98.94266666666667
aF25.755
aF12.698833333333333
aF20.171666666666667
aF74.84325
aF41.341166666666666
asS'bi41'
p43
(lp44
sS'bi54'
p45
(lp46
sS'bi55'
p47
(lp48
sS'bi57'
p49
(lp50
F10.136249999999999
aF10.833416666666666
aF17.005
asS'bi50'
p51
(lp52
sS'bi51'
p53
(lp54
F10.343166666666667
aF10.0395
asS'bi52'
p55
(lp56
sS'bi53'
p57
(lp58
sS'bwh120'
p59
(lp60
F10.069749999999999
aF26.761083333333332
aF13.189166666666667
aF11.641333333333334
aF27.8565
aF51.67166666666667
aF62.505
aF42.42166666666667
aF13.12925
aF56.970416666666665
aF68.86483333333334
aF22.005
aF11.004999999999999
aF12.106166666666667
aF10.41075
aF69.91258333333333
aF127.00500000000001
aF15.254999999999999
aF74.33241666666666
aF32.16566666666667
aF72.97533333333334
aF47.0
aF44.255
aF31.46925
aF59.306666666666665
aF53.92166666666667
aF42.544999999999995
aF76.08241666666666
aF72.58775
aF66.38683333333333
aF23.421666666666667
asS'bwh121'
p61
(lp62
sS'bwh123'
p63
(lp64
sS'bwh124'
p65
(lp66
sS'bwh125'
p67
(lp68
sS'bwh126'
p69
(lp70
F24.109750000000002
asS'bwh127'
p71
(lp72
F137.18400000000003
aF18.196916666666667
asS'bwh128'
p73
(lp74
F20.135749999999998
aF62.48683333333334
asS'bwh129'
p75
(lp76
sS'ynh159'
p77
(lp78
sS'ynh155'
p79
(lp80
sS'ynh156'
p81
(lp82
F11.52125
aF15.880500000000001
aF14.700916666666666
aF18.406333333333336
asS'ynh150'
p83
(lp84
sS'ynh152'
p85
(lp86
F17.207
aF16.371583333333334
aF12.68775
aF24.735333333333333
aF16.356749999999998
aF19.56066666666667
aF187.35925
aF11.320916666666667
aF19.155166666666666
aF89.18566666666668
aF61.510083333333334
aF14.1215
aF17.457
aF10.421666666666665
aF16.625416666666666
aF25.005
aF44.67166666666667
aF11.936833333333334
aF31.270833333333332
asS'mgh16'
p87
(lp88
sS'mgh17'
p89
(lp90
sS'mgh14'
p91
(lp92
sS'mgh15'
p93
(lp94
F15.65225
aF40.92108333333333
aF25.18566666666667
aF13.32475
aF24.252416666666665
aF33.80858333333334
aF19.307666666666666
aF17.481916666666667
aF21.212083333333332
aF18.202583333333333
aF29.005
aF49.67166666666667
aF11.189166666666667
aF25.951999999999998
aF11.140833333333335
aF18.892583333333334
aF11.217416666666667
aF10.482166666666666
aF89.08833333333334
aF14.530916666666666
aF28.494333333333334
aF55.219500000000004
aF57.601
aF10.6545
aF10.579416666666667
aF10.955083333333333
aF19.171666666666667
aF13.425999999999998
aF17.175666666666665
asS'mgh12'
p95
(lp96
sS'mgh13'
p97
(lp98
sS'mgh10'
p99
(lp100
F22.66208333333333
aF11.760083333333334
aF29.426750000000002
aF15.656916666666666
aF21.689833333333336
aF25.155083333333334
aF35.249
aF51.51233333333333
aF13.69525
aF16.669666666666664
aF72.29558333333333
aF12.525583333333334
aF34.644999999999996
aF30.55591666666667
aF77.67166666666667
aF10.325
aF44.67166666666667
aF441.8383333333333
aF13.171666666666665
aF125.08833333333334
aF11.088333333333333
aF14.088333333333333
aF270.9595
aF15.219666666666665
aF100.16691666666667
aF109.80308333333333
aF10.421666666666665
aF12.088333333333333
aF27.498749999999998
aF32.731833333333334
aF17.443416666666668
aF130.96366666666665
aF34.20391666666667
aF24.967666666666666
asS'mgh11'
p101
(lp102
F10.148333333333333
aF26.921666666666667
aF103.42166666666667
aF11.28875
aF184.03725
aF129.63500000000002
aF38.36758333333333
aF15.017083333333334
asS'mgh118'
p103
(lp104
F11.6615
aF314.575
aF52.04891666666666
aF15.530083333333332
aF18.993499999999997
aF10.847833333333334
aF23.7465
aF60.1
aF15.111916666666668
aF87.42116666666668
aF142.17166666666665
aF66.87141666666666
aF210.431
aF33.49341666666667
aF15.449583333333333
asS'ynh46'
p105
(lp106
sS'mgh110'
p107
(lp108
sS'mgh111'
p109
(lp110
sS'mgh112'
p111
(lp112
F22.957749999999997
aF117.40191666666666
aF45.79600000000001
aF205.825
aF69.96066666666667
aF81.99258333333334
aF46.467999999999996
aF10.338333333333333
aF115.50500000000001
aF23.215
aF99.06241666666666
aF155.8383333333333
asS'mgh114'
p113
(lp114
sS'mgh115'
p115
(lp116
F24.40308333333333
aF13.195666666666666
aF14.222333333333333
aF11.266
aF23.242916666666666
aF52.94383333333334
aF17.245416666666664
aF64.49208333333334
aF32.24491666666667
aF11.088333333333333
aF41.803999999999995
aF24.075499999999998
aF29.33833333333333
aF20.395083333333332
aF11.857916666666666
aF10.997000000000002
aF33.165749999999996
aF45.67166666666667
aF43.58125
asS'mgh116'
p117
(lp118
F13.412916666666666
aF25.970833333333335
aF61.89691666666667
aF20.921666666666667
aF40.9725
aF22.239083333333333
aF40.212916666666665
aF10.782666666666668
aF11.95775
aF59.505
aF53.16791666666666
aF21.092083333333335
aF16.83833333333333
aF55.005
aF114.00500000000001
aF61.581583333333334
aF25.554750000000002
aF67.7795
aF40.96425
aF98.78316666666666
aF34.334500000000006
asS'mgh117'
p119
(lp120
F23.57725
aF13.972916666666666
aF17.498916666666666
aF19.991416666666666
aF43.28725
aF10.132
aF16.41775
aF10.499833333333333
aF11.115916666666667
aF194.12791666666666
asS'ynh73'
p121
(lp122
F10.504999999999999
aF13.754999999999999
aF94.70524999999999
aF13.921666666666665
aF22.83833333333333
aF26.421666666666667
aF16.421666666666667
aF14.504999999999999
aF12.171666666666665
asS'ynh72'
p123
(lp124
F20.845416666666665
aF49.94583333333333
asS'ynh71'
p125
(lp126
F10.671666666666665
aF26.065
aF12.904416666666666
aF24.689
aF18.83833333333333
aF26.005
aF28.714583333333334
asS'ynh70'
p127
(lp128
F95.41275
aF12.193416666666668
aF30.151999999999997
aF20.103166666666667
aF17.669249999999998
aF88.83108333333332
aF23.233666666666668
aF30.034666666666666
aF18.10575
aF29.32625
aF14.879583333333333
asS'ynh77'
p129
(lp130
sS'ynh74'
p131
(lp132
sS'mgh92'
p133
(lp134
F16.435416666666665
asS'ynh78'
p135
(lp136
F24.325166666666668
aF12.239666666666666
aF32.72325
aF58.755
aF34.47616666666667
aF20.6215
aF28.026999999999997
aF11.9305
aF10.429833333333333
aF15.516583333333333
aF12.113833333333334
aF17.354833333333332
asS'bwh59'
p137
(lp138
F11.620000000000001
aF29.671666666666667
asS'bwh58'
p139
(lp140
sS'bwh51'
p141
(lp142
sS'bwh50'
p143
(lp144
sS'bwh53'
p145
(lp146
F63.005
aF449.755
aF88.15833333333333
aF86.25908333333334
aF226.13866666666667
aF150.3995
aF43.83833333333334
aF114.99166666666666
aF18.915916666666664
aF49.344833333333334
aF118.71133333333334
aF68.18775
aF192.5883333333333
aF40.09141666666667
aF46.07325
aF296.1716666666667
asS'bwh52'
p147
(lp148
F31.505
aF177.8383333333333
asS'bwh55'
p149
(lp150
sS'bwh57'
p151
(lp152
F126.40158333333333
aF15.409666666666668
aF57.26733333333333
asS'bwh56'
p153
(lp154
F36.72208333333333
aF17.917333333333332
aF54.068416666666664
aF33.56966666666667
aF20.27875
aF196.25275000000002
aF31.799416666666666
aF12.500166666666667
aF18.248583333333332
asS'mgh186'
p155
(lp156
F14.754999999999999
aF78.83833333333334
aF127.08833333333334
aF61.755
aF40.505
aF39.255
aF59.06541666666667
aF22.58833333333333
aF109.33833333333334
aF58.08833333333334
aF18.005
aF61.505
aF99.08833333333334
aF71.82758333333332
aF59.83833333333334
aF96.00500000000001
aF78.17166666666667
aF81.89875
aF34.33833333333334
aF27.921666666666667
aF45.52408333333334
aF27.51966666666667
asS'mgh185'
p157
(lp158
sS'mgh99'
p159
(lp160
F10.751666666666667
aF10.1125
aF186.0645
aF22.68091666666667
aF12.338333333333333
aF14.608166666666667
aF19.236
aF16.465166666666665
asS'mgh183'
p161
(lp162
F21.171666666666667
asS'mgh181'
p163
(lp164
F13.921666666666665
aF27.458166666666667
aF13.198666666666666
aF21.201083333333333
aF153.31816666666666
aF34.83833333333334
aF13.247833333333334
aF91.84791666666666
aF14.671666666666665
asS'mgh180'
p165
(lp166
F12.216083333333334
aF122.55291666666668
aF53.33833333333334
aF22.08833333333333
aF168.0883333333333
aF49.08833333333334
aF56.41608333333333
aF25.33833333333333
aF125.74775
aF23.460833333333333
aF25.89816666666667
aF16.421666666666667
asS'bi89'
p167
(lp168
sS'bi88'
p169
(lp170
F68.00175
aF21.306916666666666
aF48.46475
aF199.35483333333335
aF153.33374999999998
aF36.07058333333334
aF54.373666666666665
aF14.46
aF13.549000000000001
aF38.3885
aF45.05983333333334
aF18.41325
aF37.202999999999996
aF51.82925
aF10.861666666666668
aF15.2485
aF30.1235
aF20.21925
aF21.496166666666667
aF24.741666666666667
aF59.005
aF10.408583333333333
aF31.243
aF15.744583333333333
aF119.519
aF89.92166666666667
asS'bi83'
p171
(lp172
sS'bi82'
p173
(lp174
sS'bi81'
p175
(lp176
sS'bi80'
p177
(lp178
sS'bi87'
p179
(lp180
F12.117916666666668
asS'bi85'
p181
(lp182
F10.078333333333335
aF10.102833333333333
asS'bi84'
p183
(lp184
F32.70608333333333
aF20.942583333333335
aF12.330666666666668
aF54.92308333333334
aF11.235083333333334
aF11.265916666666667
aF19.518583333333332
aF73.99091666666666
aF61.56166666666666
aF13.720083333333333
aF14.30375
aF76.97749999999999
aF142.7955
asS'bi10'
p185
(lp186
F44.67166666666667
aF225.27883333333332
aF126.50500000000001
aF11.913083333333333
aF77.325
aF42.67166666666667
aF14.526083333333334
aF226.05166666666668
aF109.75608333333334
aF107.96275
asS'bi15'
p187
(lp188
sS'bi16'
p189
(lp190
F18.47825
aF59.17166666666667
aF21.378416666666666
aF17.957916666666666
aF26.70325
aF14.748916666666666
aF30.54025
aF42.04966666666667
aF14.439833333333333
aF49.14658333333333
aF14.164666666666667
aF19.32875
aF32.39958333333333
aF254.42166666666665
aF81.11925
aF33.0725
aF38.143249999999995
asS'bi17'
p191
(lp192
F29.09508333333333
aF13.541
aF38.935500000000005
aF132.48583333333332
asS'bi18'
p193
(lp194
F88.77624999999999
aF92.21883333333334
aF32.08833333333333
aF19.122166666666665
aF42.54858333333333
aF23.05441666666667
aF40.898
aF39.92166666666667
aF181.21175
aF33.24166666666667
aF136.56458333333333
aF117.67166666666667
aF140.5883333333333
aF213.17166666666665
aF47.995666666666665
aF21.068499999999997
aF27.39725
aF45.408
aF45.32008333333333
aF15.642583333333333
aF11.799166666666668
aF13.794666666666666
aF18.063750000000002
aF47.51658333333333
aF15.115666666666668
aF13.796666666666665
aF25.04008333333333
aF45.69825
aF28.788333333333334
aF62.967
aF23.870333333333335
aF21.19816666666667
aF32.46391666666667
aF43.50508333333333
aF33.4415
aF10.124083333333335
aF53.40958333333333
aF19.755499999999998
aF15.55425
aF23.314416666666666
aF17.081916666666665
aF10.68875
aF15.708
asS'bi19'
p195
(lp196
F596.4216666666667
aF49.49166666666667
aF38.72808333333333
aF258.44308333333333
aF98.19008333333333
aF39.37166666666667
aF104.42450000000001
aF31.005
aF14.252583333333332
aF59.67166666666667
aF14.96425
aF92.753
aF98.89908333333332
aF88.46350000000001
aF14.157666666666668
aF10.563833333333333
aF22.2835
aF17.692
aF15.759166666666665
asS'ynh111'
p197
(lp198
sS'ynh115'
p199
(lp200
sS'ynh114'
p201
(lp202
sS'ynh117'
p203
(lp204
F20.66525
asS'ynh116'
p205
(lp206
F246.36599999999999
aF33.60616666666667
aF62.605000000000004
aF325.26858333333337
aF325.33441666666664
aF20.264333333333333
aF73.17358333333333
aF18.755
aF62.03075
aF16.00175
aF11.17175
aF13.300416666666667
asS'ynh119'
p207
(lp208
sS'ynh118'
p209
(lp210
sS'ynh82'
p211
(lp212
sS'ynh83'
p213
(lp214
sS'ynh80'
p215
(lp216
F155.84875
aF91.16008333333333
aF233.76683333333332
aF11.70825
aF22.421666666666667
asS'ynh81'
p217
(lp218
F17.014416666666666
aF17.333583333333333
aF13.84175
aF17.746750000000002
aF27.66033333333333
aF27.017333333333333
aF24.801666666666666
aF23.732666666666667
aF104.35775
aF11.569916666666668
aF14.716166666666668
aF13.807583333333334
aF10.017833333333334
aF12.410416666666666
aF23.997083333333332
aF143.90525
asS'ynh86'
p219
(lp220
F17.01775
aF100.02283333333334
aF17.93025
aF24.222916666666666
aF87.83383333333333
aF17.8455
aF66.3185
aF16.12
aF52.61533333333333
aF19.668833333333335
aF27.528416666666665
aF24.163999999999998
aF42.53816666666667
aF53.89358333333333
aF14.728166666666668
aF11.128416666666668
aF10.475083333333334
aF30.96675
aF10.031666666666666
aF10.90225
aF37.256499999999996
aF24.39466666666667
asS'ynh87'
p221
(lp222
F54.61683333333334
aF30.439583333333335
aF22.58833333333333
aF164.755
aF22.505
aF163.755
aF168.3383333333333
aF173.005
aF13.839416666666667
aF40.187
aF23.834083333333336
aF90.58833333333334
aF256.8383333333333
aF18.765916666666666
aF25.921666666666667
aF264.0883333333333
aF245.0883333333333
aF24.776666666666664
aF16.88125
aF13.438833333333333
aF60.33833333333334
aF14.545
asS'ynh85'
p223
(lp224
F87.48133333333334
aF20.42175
aF14.777833333333332
aF16.316333333333333
aF40.07116666666666
aF10.004999999999999
aF10.004999999999999
asS'ynh88'
p225
(lp226
F10.599250000000001
aF38.80858333333333
aF10.839166666666667
aF12.602583333333333
aF77.09358333333333
aF57.25741666666667
aF51.89308333333334
aF34.92941666666666
aF158.547
aF19.803416666666667
aF10.14525
aF12.323916666666666
aF15.634833333333335
aF10.047083333333335
aF25.47533333333333
aF19.081416666666666
aF12.291500000000001
aF10.186416666666666
aF13.934249999999999
aF16.205
aF18.716083333333334
aF13.103666666666667
aF17.74725
aF11.3015
aF15.63775
aF40.13125
aF15.068083333333334
aF17.457666666666668
aF10.045250000000001
aF17.582666666666668
aF37.68425
aF34.900999999999996
aF14.121083333333333
aF16.395500000000002
asS'mgh158'
p227
(lp228
sS'mgh159'
p229
(lp230
F14.358083333333333
aF15.154083333333334
aF10.1995
aF44.54025
aF13.5105
aF11.82825
aF12.649083333333333
aF11.951500000000001
aF11.069416666666665
aF36.324333333333335
aF11.928666666666667
asS'mgh154'
p231
(lp232
F16.436333333333334
aF20.056333333333335
aF21.989583333333332
asS'mgh155'
p233
(lp234
F148.2374166666667
aF10.337833333333332
aF11.271833333333332
aF84.37674999999999
aF10.735583333333333
aF23.755
aF16.86625
aF16.48966666666667
aF15.0955
aF10.408916666666666
aF27.924833333333332
aF20.7595
aF13.9075
aF14.783166666666666
aF32.94466666666667
aF16.216833333333334
asS'mgh156'
p235
(lp236
F20.771416666666667
aF51.92166666666667
aF26.005
asS'mgh157'
p237
(lp238
F73.41991666666667
asS'mgh150'
p239
(lp240
sS'mgh151'
p241
(lp242
sS'mgh152'
p243
(lp244
sS'mgh153'
p245
(lp246
F13.923083333333333
aF139.75608333333332
aF54.29141666666667
aF32.681583333333336
aF39.42466666666667
aF31.2335
aF21.94875
aF41.22808333333333
asS'ynh37'
p247
(lp248
sS'ynh36'
p249
(lp250
F10.613833333333334
asS'ynh34'
p251
(lp252
F253.07924999999997
aF73.08833333333334
aF14.624583333333334
aF42.9745
aF16.58833333333333
aF10.045333333333334
aF258.6785
aF27.886333333333333
aF164.04266666666666
aF272.2815
aF153.92166666666665
aF28.900666666666666
aF37.82675
aF104.83491666666667
aF305.6716666666667
aF13.713750000000001
aF75.47025000000001
aF50.17941666666666
aF108.97341666666667
aF61.493249999999996
aF24.34058333333333
aF114.30175
aF33.336083333333335
aF12.48625
aF15.631916666666665
aF18.4585
aF123.24258333333334
aF29.671666666666667
aF87.21008333333333
aF11.040916666666668
aF28.515
aF15.909916666666668
aF12.69275
aF14.136750000000001
asS'ynh33'
p253
(lp254
sS'ynh31'
p255
(lp256
sS'ynh30'
p257
(lp258
sS'ynh39'
p259
(lp260
sS'ynh38'
p261
(lp262
F10.990083333333333
aF77.648
aF12.38825
aF46.84358333333333
aF36.57275
aF16.57075
aF31.167666666666666
aF63.75841666666667
aF15.883666666666667
asS'mgh52'
p263
(lp264
sS'mgh53'
p265
(lp266
F31.755
aF149.255
aF60.062416666666664
aF86.50500000000001
aF74.58833333333334
aF44.83833333333334
aF98.99166666666666
aF107.00500000000001
aF58.61675
aF11.534333333333333
aF32.56475
aF21.669416666666667
aF58.90466666666667
aF11.355916666666667
aF40.19941666666667
aF43.86508333333334
aF45.11841666666667
aF17.683249999999997
aF46.04058333333333
aF20.068833333333334
aF32.16341666666667
aF14.369833333333334
aF24.1795
aF21.276666666666664
asS'mgh51'
p267
(lp268
sS'mgh56'
p269
(lp270
sS'mgh57'
p271
(lp272
F22.84075
aF27.447916666666668
aF83.0165
aF23.443666666666665
aF78.809
asS'mgh54'
p273
(lp274
sS'mgh55'
p275
(lp276
sS'mgh58'
p277
(lp278
sS'mgh59'
p279
(lp280
F91.56291666666667
aF10.756333333333334
aF23.008750000000003
aF13.51875
aF11.21875
aF35.01358333333334
aF23.760166666666667
aF10.53125
aF14.1525
asS'bwh218'
p281
(lp282
sS'bi48'
p283
(lp284
sS'bwh216'
p285
(lp286
sS'bwh217'
p287
(lp288
F46.0545
aF32.916333333333334
aF179.10083333333333
aF61.944833333333335
aF15.682833333333333
aF21.043166666666664
aF35.599583333333335
aF13.642916666666668
aF61.17166666666667
aF197.23141666666666
aF14.396916666666668
aF40.30008333333333
aF20.92233333333333
aF37.098333333333336
aF18.2595
aF112.95341666666667
aF35.51291666666667
aF15.907666666666668
aF68.83833333333334
aF40.38325
aF37.098083333333335
aF49.86466666666667
aF22.989583333333332
aF49.73583333333333
aF81.40658333333334
aF46.61225
aF31.278666666666666
aF25.012416666666663
aF11.761666666666667
aF14.532416666666668
aF12.858666666666666
aF19.097666666666665
aF21.363916666666668
aF14.014833333333334
aF60.95233333333333
aF124.17691666666666
aF189.77308333333335
aF25.31775
aF25.587
aF17.197416666666665
aF37.02008333333333
aF21.488
aF41.440083333333334
aF11.64075
aF18.930583333333335
aF48.419
aF23.619416666666666
aF34.27916666666667
aF37.05083333333334
aF36.63033333333333
aF68.13433333333333
aF17.983416666666667
asS'bwh214'
p289
(lp290
sS'bwh215'
p291
(lp292
sS'bwh212'
p293
(lp294
F24.88475
aF46.10775
aF114.83825
aF21.549249999999997
aF92.53649999999999
asS'bwh213'
p295
(lp296
sS'bwh210'
p297
(lp298
F12.175749999999999
aF15.739666666666666
aF15.198916666666666
aF49.318
aF216.29791666666668
aF137.83466666666666
aF19.985583333333334
aF108.33833333333334
aF63.202083333333334
aF69.47158333333333
aF45.17166666666667
asS'bwh211'
p299
(lp300
sS'bwh139'
p301
(lp302
F17.513916666666667
aF11.08125
asS'bwh138'
p303
(lp304
sS'bwh137'
p305
(lp306
sS'bwh136'
p307
(lp308
sS'bwh135'
p309
(lp310
F255.3383333333333
aF17.756500000000003
aF29.57225
aF127.50500000000001
aF139.67166666666665
aF236.8781666666667
aF84.50500000000001
aF64.08241666666667
aF183.47816666666668
aF20.976999999999997
aF63.16941666666666
aF261.005
asS'bwh134'
p311
(lp312
sS'bwh133'
p313
(lp314
F29.48258333333333
aF60.243249999999996
asS'bwh131'
p315
(lp316
sS'bwh130'
p317
(lp318
F47.67941666666666
aF35.190916666666666
aF10.323416666666667
aF12.421666666666665
aF13.263916666666667
aF114.61808333333333
aF160.60750000000002
asS'ynh58'
p319
(lp320
F17.197083333333335
aF22.512
aF28.937583333333336
aF11.930833333333334
aF10.167416666666666
aF11.703583333333334
aF64.76133333333333
aF19.241083333333332
aF14.830833333333334
aF16.764166666666668
aF281.55199999999996
aF17.151666666666664
aF10.338333333333333
aF21.967083333333335
aF10.712666666666667
aF228.22083333333333
aF72.20158333333333
aF89.56808333333333
aF41.14933333333333
aF18.438750000000002
aF173.08566666666667
aF10.818083333333334
aF313.1716666666667
aF26.86375
aF13.856583333333333
aF91.63066666666667
aF51.881416666666674
aF19.894833333333334
aF186.28175000000002
aF11.972916666666666
aF20.73166666666667
aF21.12
aF53.506750000000004
aF132.81866666666667
aF12.53725
aF11.22475
aF52.05733333333333
aF23.114833333333333
asS'mgh29'
p321
(lp322
sS'mgh28'
p323
(lp324
sS'mgh23'
p325
(lp326
F70.64016666666666
aF67.09425
aF83.376
aF12.222083333333334
aF17.913666666666664
aF117.90691666666666
aF26.394166666666667
aF29.445833333333333
aF14.45275
aF18.99825
aF24.851583333333334
aF21.82
aF171.8383333333333
aF57.16166666666666
aF29.505
aF80.75500000000001
aF131.30733333333333
aF122.93141666666666
aF107.00500000000001
aF158.755
aF29.421666666666667
aF41.92166666666667
aF189.17241666666666
aF63.562
aF19.921666666666667
aF58.005
aF63.32458333333333
aF183.5883333333333
aF159.27258333333333
aF45.52633333333333
aF121.52608333333333
aF93.92166666666667
aF11.004999999999999
asS'mgh22'
p327
(lp328
F20.171666666666667
aF348.88325
aF11.194583333333332
aF118.97725
asS'mgh21'
p329
(lp330
sS'mgh20'
p331
(lp332
sS'mgh27'
p333
(lp334
sS'mgh26'
p335
(lp336
sS'mgh25'
p337
(lp338
sS'mgh24'
p339
(lp340
sS'mgh107'
p341
(lp342
F17.421666666666667
aF325.9216666666667
aF109.33216666666667
aF20.58833333333333
aF35.99166666666667
aF131.53608333333332
aF19.671666666666667
aF98.52375
aF24.101
aF10.554499999999999
aF209.0883333333333
aF128.72525000000002
aF91.91816666666666
aF121.17166666666667
aF44.357166666666664
aF132.375
aF112.34733333333334
aF130.00383333333332
aF77.33258333333333
aF202.64608333333334
aF13.53825
asS'mgh106'
p343
(lp344
sS'mgh105'
p345
(lp346
sS'mgh104'
p347
(lp348
F19.921666666666667
aF213.17166666666665
aF43.99166666666667
aF148.67166666666665
aF10.421666666666665
aF12.153833333333333
aF87.35758333333334
aF77.94608333333333
aF45.83391666666667
aF51.74208333333333
aF11.436583333333335
aF14.652999999999999
aF49.245
asS'mgh102'
p349
(lp350
sS'mgh101'
p351
(lp352
F17.58216666666667
aF16.909666666666666
asS'mgh109'
p353
(lp354
F19.255
aF162.17166666666665
aF173.255
aF115.92166666666667
aF70.50500000000001
aF87.74166666666666
aF22.505
aF257.3274166666667
aF12.395999999999999
aF57.34533333333333
aF25.87775
aF32.530833333333334
aF84.75500000000001
asS'mgh108'
p355
(lp356
sS'ynh69'
p357
(lp358
sS'ynh65'
p359
(lp360
F291.9216666666667
aF128.71208333333334
aF11.50575
aF49.632083333333334
aF83.83616666666667
aF49.26
aF87.09358333333333
aF23.731833333333334
aF291.3383333333333
aF63.58833333333334
aF65.07158333333334
aF183.67166666666665
aF157.8250833333333
aF113.1035
aF31.921666666666667
aF107.58441666666666
aF28.33833333333333
aF62.92166666666667
aF16.171666666666667
aF17.08833333333333
aF10.814083333333334
aF33.38725
aF15.832916666666668
aF11.882166666666667
asS'ynh61'
p361
(lp362
F23.93316666666667
aF17.1115
aF29.211583333333333
aF28.426666666666666
aF21.742166666666666
aF13.5395
aF25.88675
aF19.894916666666667
aF11.195416666666667
aF34.0635
aF11.883999999999999
aF19.532916666666665
aF12.847083333333334
asS'ynh63'
p363
(lp364
sS'bwh48'
p365
(lp366
F31.341
aF15.638083333333332
aF71.51983333333332
aF49.448499999999996
aF84.91316666666667
aF52.488416666666666
aF151.42166666666665
aF43.577416666666664
aF280.5883333333333
asS'bwh49'
p367
(lp368
sS'bwh42'
p369
(lp370
sS'bwh43'
p371
(lp372
sS'bwh40'
p373
(lp374
F19.235583333333334
aF25.24641666666667
aF34.255
aF13.130333333333335
asS'bwh41'
p375
(lp376
F65.97708333333334
aF81.90541666666667
aF31.140416666666667
aF11.034249999999998
aF21.0885
asS'bwh46'
p377
(lp378
sS'bwh47'
p379
(lp380
sS'bwh44'
p381
(lp382
F11.004999999999999
aF16.352999999999998
aF14.755583333333334
aF23.286333333333335
aF36.17166666666667
aF24.005
aF35.08541666666667
aF64.85516666666666
aF11.407166666666665
aF23.244416666666666
aF66.39341666666667
aF86.7345
aF84.29408333333335
aF71.14866666666667
aF46.688250000000004
asS'bwh45'
p383
(lp384
sS'mgh84'
p385
(lp386
sS'mgh87'
p387
(lp388
F15.359666666666667
aF16.58833333333333
aF20.255
aF11.171666666666665
aF11.088333333333333
aF31.171666666666667
aF10.921666666666665
aF13.171666666666665
aF22.140583333333332
aF18.671666666666667
aF43.58716666666667
asS'mgh86'
p389
(lp390
F19.171666666666667
aF12.8425
aF44.704166666666666
aF22.50808333333333
aF19.33125
aF11.9535
aF56.42166666666667
aF218.67166666666665
aF11.52125
aF32.213
aF60.40541666666666
aF462.27099999999996
asS'mgh81'
p391
(lp392
sS'mgh80'
p393
(lp394
F15.018083333333333
aF97.7505
aF14.094249999999999
aF270.6421666666667
aF13.08925
aF110.71541666666667
aF10.677916666666667
aF30.8565
aF14.252749999999999
asS'ynh128'
p395
(lp396
F159.51508333333334
aF15.859416666666668
aF37.07925
aF17.671666666666667
aF90.562
aF11.3585
aF40.83258333333333
aF601.7270000000001
asS'ynh129'
p397
(lp398
F12.755583333333334
aF18.286583333333333
aF12.971416666666666
aF18.688083333333335
aF24.634333333333334
asS'ynh124'
p399
(lp400
F12.036833333333334
aF11.175083333333333
aF32.29266666666667
aF11.173333333333334
aF14.536583333333335
aF21.608583333333335
aF29.40425
aF10.063083333333333
asS'ynh125'
p401
(lp402
F34.809333333333335
asS'ynh126'
p403
(lp404
sS'ynh127'
p405
(lp406
sS'ynh120'
p407
(lp408
F95.5085
aF27.834666666666667
aF14.62075
aF31.6635
aF28.43316666666667
aF11.2035
aF30.420333333333335
aF24.388250000000003
asS'ynh121'
p409
(lp410
sS'ynh123'
p411
(lp412
sS'ynh52'
p413
(lp414
F127.30783333333333
aF10.395333333333333
aF11.132583333333335
aF34.73983333333333
asS'bwh106'
p415
(lp416
F130.08833333333334
aF125.92166666666667
aF118.50500000000001
aF26.755
aF10.838333333333333
aF54.255
aF55.33833333333334
aF20.671666666666667
aF13.991666666666667
aF19.08833333333333
aF12.671666666666665
aF38.05891666666666
aF50.83833333333334
aF25.779333333333334
aF37.58833333333334
aF13.701583333333334
aF10.700999999999999
aF22.671666666666667
aF17.068666666666665
aF33.42166666666667
aF50.58833333333334
aF20.421666666666667
aF10.038
aF19.671666666666667
asS'bwh107'
p417
(lp418
sS'bwh104'
p419
(lp420
F15.968333333333334
aF34.82983333333333
aF13.19325
aF105.19566666666667
aF18.002583333333334
aF10.982750000000001
aF14.290333333333333
aF22.210083333333333
aF166.15891666666667
aF165.0280833333333
aF23.37858333333333
aF93.0545
asS'bwh105'
p421
(lp422
F101.34008333333333
aF11.277833333333332
aF39.88291666666667
aF13.734833333333334
aF32.86233333333333
aF48.24825
asS'bwh102'
p423
(lp424
F13.004999999999999
asS'bwh103'
p425
(lp426
F67.54858333333333
aF17.830333333333332
aF16.373583333333332
aF10.193666666666667
asS'bwh100'
p427
(lp428
F13.347583333333334
aF14.287749999999999
aF50.458333333333336
aF10.554583333333333
aF68.21308333333333
aF35.21375
aF76.67166666666667
aF211.255
asS'bwh101'
p429
(lp430
F18.76608333333333
aF13.067083333333333
aF13.671666666666665
aF26.671666666666667
aF14.671666666666665
aF10.754999999999999
aF12.754999999999999
aF10.088333333333333
aF16.08833333333333
aF17.58833333333333
aF16.255
aF41.92166666666667
aF18.83833333333333
aF43.33833333333334
aF30.255
aF18.171666666666667
aF22.83833333333333
aF17.005
aF31.755
aF14.421666666666665
aF11.171666666666665
aF22.255
aF16.505
aF13.504999999999999
aF19.08833333333333
aF30.005
asS'bwh108'
p431
(lp432
sS'bwh109'
p433
(lp434
sS'mgh148'
p435
(lp436
F10.921666666666665
aF81.79183333333334
aF97.46466666666667
aF37.58833333333334
asS'mgh143'
p437
(lp438
sS'mgh142'
p439
(lp440
F18.763333333333332
aF25.412750000000003
aF93.88933333333333
aF134.255
aF16.83833333333333
aF21.412166666666668
aF32.968833333333336
aF41.40408333333333
aF47.274750000000004
aF20.28708333333333
aF94.56683333333334
asS'mgh141'
p441
(lp442
F31.2225
aF12.729916666666666
aF10.671666666666665
aF21.505
aF46.56333333333334
aF48.74308333333333
asS'mgh140'
p443
(lp444
F36.67166666666667
aF805.755
aF77.98925
aF246.505
aF30.941416666666665
aF103.65466666666666
aF12.086
aF45.51166666666666
asS'mgh146'
p445
(lp446
F258.9295833333333
aF28.83833333333333
asS'ynh20'
p447
(lp448
sS'ynh21'
p449
(lp450
F72.22908333333334
asS'ynh22'
p451
(lp452
F17.223166666666668
aF13.719249999999999
aF62.525999999999996
aF77.00625
aF36.71608333333334
aF48.529833333333336
aF118.23925
aF11.338333333333333
asS'ynh23'
p453
(lp454
sS'ynh24'
p455
(lp456
F10.51875
aF40.832499999999996
aF330.7155
aF12.996416666666667
aF190.65833333333333
aF323.6623333333334
aF21.005
aF14.165333333333333
aF110.92166666666667
aF27.59783333333333
aF75.14758333333333
aF32.58833333333333
aF30.83833333333333
aF21.571416666666668
aF49.676249999999996
aF86.17925
aF111.58833333333334
aF341.22566666666665
aF242.99166666666667
aF11.645999999999999
aF137.47541666666666
aF27.27725
aF28.514666666666667
aF16.52241666666667
aF113.17166666666667
aF58.005
aF115.75500000000001
aF58.505
aF202.99166666666667
aF266.255
aF43.21391666666667
aF258.9216666666667
aF124.135
aF113.325
aF124.92699999999999
aF29.33833333333333
aF357.1716666666667
aF11.921666666666665
asS'ynh25'
p457
(lp458
F38.793416666666666
aF38.32183333333333
aF19.161083333333334
aF34.51291666666667
aF12.756916666666665
aF13.531833333333333
aF12.423416666666666
aF18.121166666666667
aF11.997250000000001
aF39.23116666666667
aF30.2885
aF34.51291666666667
aF12.032916666666667
aF20.955166666666667
aF45.35191666666666
aF16.456
aF20.82991666666667
aF11.988666666666667
aF16.117583333333332
aF27.663
aF12.293000000000001
aF10.537916666666666
aF16.859583333333333
aF12.42775
aF17.323333333333334
aF29.93575
aF10.95825
aF10.321166666666667
aF22.463166666666666
aF10.088333333333333
aF27.311333333333334
aF50.27775
aF19.557166666666667
aF86.25583333333334
aF31.463083333333334
aF15.152916666666666
aF16.170166666666667
aF11.019749999999998
aF25.798000000000002
aF12.267666666666665
aF10.004999999999999
aF122.07658333333333
aF41.758583333333334
asS'ynh26'
p459
(lp460
F60.450916666666664
aF25.8205
aF28.56225
aF36.642
aF55.0015
aF12.974333333333334
aF56.227333333333334
aF73.4715
aF34.79725
aF35.336416666666665
aF11.326833333333333
aF26.83083333333333
aF20.35758333333333
aF22.593833333333336
aF210.6565
aF17.759166666666665
asS'ynh27'
p461
(lp462
sS'ynh28'
p463
(lp464
sS'mgh138'
p465
(lp466
sS'mgh139'
p467
(lp468
F12.766833333333333
aF27.44408333333333
aF17.671499999999998
aF10.689916666666667
aF11.550083333333333
aF30.422250000000002
aF120.44075
aF20.047166666666666
aF16.88075
aF37.3305
aF26.008249999999997
aF14.068583333333333
aF79.50808333333333
aF46.266
aF16.712916666666665
aF171.37033333333332
aF25.70925
aF13.949083333333334
aF10.5045
aF11.49175
aF105.27141666666667
aF23.30225
aF12.374833333333333
aF50.92766666666667
aF39.80050000000001
aF14.260333333333334
aF19.014833333333335
aF15.004999999999999
asS'mgh136'
p469
(lp470
sS'mgh137'
p471
(lp472
F36.191583333333334
aF19.9815
aF39.687
aF19.552500000000002
aF37.100166666666674
aF168.47591666666668
aF22.02625
aF21.389666666666667
aF13.018416666666667
asS'mgh135'
p473
(lp474
F19.58833333333333
aF287.9916666666667
aF233.92166666666665
aF36.58833333333334
aF86.50500000000001
aF152.60675
aF16.643833333333333
aF113.00500000000001
aF22.64558333333333
aF335.5383333333333
aF11.043916666666666
aF10.184416666666667
aF13.028916666666667
aF47.055416666666666
aF18.567833333333333
aF30.24975
aF10.6525
aF10.02925
aF137.16808333333333
aF177.255
aF152.22166666666666
aF113.34899999999999
aF80.2085
aF135.17166666666668
aF106.09733333333334
aF20.671666666666667
aF159.99166666666667
aF79.49641666666666
aF56.92166666666667
aF39.42166666666667
aF32.17166666666667
aF10.754999999999999
aF61.255
aF55.83833333333334
aF38.755
aF10.588333333333333
aF79.25500000000001
aF76.83833333333334
aF10.421666666666665
aF10.004999999999999
aF26.33833333333333
aF11.088333333333333
aF31.921666666666667
aF156.755
aF187.65833333333333
aF301.4216666666667
asS'mgh133'
p475
(lp476
sS'mgh131'
p477
(lp478
sS'ynh54'
p479
(lp480
sS'ynh57'
p481
(lp482
F27.757416666666664
aF10.338333333333333
aF21.505
aF12.917666666666666
aF84.33666666666666
aF187.3383333333333
aF18.880083333333335
aF23.903166666666667
aF10.314333333333334
aF14.398333333333333
asS'ynh56'
p483
(lp484
sS'ynh51'
p485
(lp486
F10.841916666666666
aF11.425916666666666
aF21.510583333333333
aF21.61691666666667
aF14.926416666666666
aF12.651833333333334
aF15.59625
aF16.516083333333334
aF15.567833333333335
aF46.89116666666666
aF16.438750000000002
aF17.095166666666668
aF79.27600000000001
aF47.61408333333333
aF17.02808333333333
aF87.86641666666667
aF115.34483333333333
asS'ynh50'
p487
(lp488
sS'mgh69'
p489
(lp490
F249.075
aF396.005
aF13.750583333333333
aF101.42166666666667
aF24.01741666666667
aF15.522833333333333
aF150.96450000000002
aF15.234333333333332
aF75.17275
aF45.574666666666666
aF30.005
aF36.28883333333333
aF10.113249999999999
aF29.171666666666667
aF10.74575
aF32.34066666666667
aF118.75500000000001
aF39.99758333333333
aF15.921666666666665
aF12.66825
aF60.79833333333333
aF37.05916666666667
aF19.09825
aF31.91825
asS'mgh68'
p491
(lp492
sS'mgh67'
p493
(lp494
F10.295
aF110.49600000000001
aF27.692833333333333
aF156.5825
aF11.938583333333334
aF27.397499999999997
aF16.255
aF12.798666666666666
aF13.355416666666667
aF18.49591666666667
aF31.58833333333333
aF66.34658333333333
aF17.004166666666666
aF39.056916666666666
aF21.530416666666667
aF38.83258333333333
aF11.374333333333334
aF16.97908333333333
aF20.368499999999997
aF12.272666666666668
aF45.81275
aF12.910916666666667
aF60.67191666666667
aF22.421666666666667
aF89.33833333333334
aF26.235333333333333
aF18.33833333333333
asS'mgh66'
p495
(lp496
F21.671666666666667
asS'mgh65'
p497
(lp498
F17.01675
aF30.521333333333335
aF131.255
aF143.42166666666665
aF59.17166666666667
aF34.525999999999996
aF108.58033333333333
aF18.755
aF74.39675000000001
aF12.921666666666665
aF45.42166666666667
aF17.897083333333335
aF151.505
aF73.58833333333334
aF28.926750000000002
aF12.0395
asS'mgh64'
p499
(lp500
sS'ynh59'
p501
(lp502
F54.92166666666667
aF28.05091666666667
aF14.705416666666668
aF125.00500000000001
aF205.3383333333333
aF26.656166666666664
aF15.421666666666665
aF23.41058333333333
aF134.67166666666668
aF60.005
aF15.753833333333334
aF195.5883333333333
aF12.291416666666667
aF16.116333333333333
aF18.527083333333334
aF65.57283333333334
aF20.103666666666665
aF10.309916666666668
aF240.505
aF15.921666666666665
aF254.005
aF21.717
asS'mgh62'
p503
(lp504
sS'mgh61'
p505
(lp506
F13.152166666666666
aF65.60075
aF23.071166666666667
aF41.47366666666667
aF10.334916666666667
aF11.291583333333334
aF58.73966666666667
aF27.433083333333332
aF69.54191666666667
aF131.13025
aF16.819416666666665
aF17.985833333333336
aF75.88708333333334
aF162.5883333333333
aF123.86591666666666
aF92.15833333333333
aF187.0883333333333
aF67.08833333333334
aF70.31108333333333
aF33.63366666666666
aF145.57625000000002
aF15.254999999999999
aF17.881166666666665
aF284.09458333333333
aF12.695666666666666
asS'mgh60'
p507
(lp508
F19.33833333333333
aF56.85158333333333
aF73.575
aF296.505
aF115.38875
aF23.07766666666667
aF22.40275
aF23.33833333333333
aF13.088333333333333
aF27.37325
aF22.08833333333333
aF21.005
aF20.83833333333333
aF62.08833333333334
aF56.92166666666667
aF37.84975
aF32.755
aF19.558
aF28.58833333333333
aF73.33833333333334
aF10.473916666666666
aF16.0155
aF126.58833333333334
aF12.279833333333332
aF40.18575
aF407.33591666666666
aF11.670666666666667
aF117.90325
aF323.8383333333333
aF53.33833333333334
asS'mgh85'
p509
(lp510
sS'bwh32'
p511
(lp512
sS'bwh31'
p513
(lp514
F140.99166666666667
aF75.32933333333334
aF29.627
aF12.5555
aF11.504999999999999
aF89.17824999999999
aF57.107
aF16.171666666666667
aF74.33833333333334
aF12.27025
aF11.137583333333334
aF10.308166666666667
aF34.849916666666665
aF100.17166666666667
aF50.06316666666667
aF10.144916666666667
asS'bwh30'
p515
(lp516
sS'bwh37'
p517
(lp518
F14.57775
aF27.043416666666666
aF25.378083333333333
aF54.282583333333335
asS'bwh36'
p519
(lp520
sS'bwh35'
p521
(lp522
sS'bwh34'
p523
(lp524
F411.0883333333333
aF18.611666666666668
asS'bwh39'
p525
(lp526
sS'bwh38'
p527
(lp528
sS'mgh89'
p529
(lp530
F23.244333333333334
aF15.134166666666665
aF21.83833333333333
asS'mgh88'
p531
(lp532
F17.170583333333333
aF12.866916666666667
aF10.267916666666668
aF10.018583333333334
aF11.422083333333335
aF11.947333333333335
aF17.580583333333333
aF13.061166666666667
asS'bi78'
p533
(lp534
sS'bi72'
p535
(lp536
F11.17975
aF10.311
aF10.87325
aF10.833416666666666
aF14.845916666666666
aF11.896166666666666
aF24.203416666666666
aF13.92225
asS'bi73'
p537
(lp538
F15.508166666666666
aF43.095
aF11.5665
aF15.715666666666667
aF102.67966666666666
aF16.01975
aF250.8705
aF11.204333333333333
aF14.55775
aF21.211333333333336
aF13.575166666666666
aF12.410416666666666
aF14.298583333333333
aF40.03175
aF35.19866666666667
aF10.291583333333334
aF130.24633333333333
aF10.02525
aF68.86033333333333
asS'bi70'
p539
(lp540
sS'bi71'
p541
(lp542
F66.72075
aF32.80775
aF52.114000000000004
aF10.217083333333333
aF87.38191666666667
aF382.2239166666667
aF14.11875
asS'bi77'
p543
(lp544
sS'bi74'
p545
(lp546
sS'bi75'
p547
(lp548
sS'bwh142'
p549
(lp550
F50.255
aF12.721416666666666
aF61.03283333333333
aF11.178166666666668
aF10.965583333333333
asS'bwh140'
p551
(lp552
F10.797666666666666
aF18.093083333333333
aF74.92166666666667
aF116.50500000000001
aF15.134083333333333
aF134.7715
aF14.635166666666667
aF19.009333333333334
aF25.76833333333333
aF27.005
asS'bwh141'
p553
(lp554
F10.838333333333333
aF12.590083333333332
aF16.005
aF14.48725
aF17.671666666666667
asS'bi108'
p555
(lp556
F88.9145
aF12.286416666666666
aF28.405166666666666
aF12.959333333333332
aF52.569583333333334
aF55.38366666666666
aF20.817999999999998
aF337.57591666666667
aF84.24116666666667
aF18.252416666666665
aF23.057583333333334
aF26.146250000000002
aF22.201999999999998
aF17.215916666666665
aF24.54275
aF16.830583333333333
aF43.14641666666667
asS'bi101'
p557
(lp558
sS'bi103'
p559
(lp560
F11.472666666666667
asS'bi102'
p561
(lp562
sS'bi105'
p563
(lp564
sS'bi104'
p565
(lp566
sS'bi107'
p567
(lp568
sS'bi106'
p569
(lp570
sS'mgh172'
p571
(lp572
sS'mgh173'
p573
(lp574
F10.38475
aF28.19275
aF108.33825
aF24.403666666666666
asS'mgh170'
p575
(lp576
F13.7485
aF31.427666666666667
asS'mgh171'
p577
(lp578
F11.68675
aF25.61075
aF14.73475
aF11.75225
aF17.708750000000002
aF50.98925
aF16.076416666666667
aF10.198583333333334
aF11.054333333333334
aF14.30475
aF15.375083333333333
aF22.29866666666667
aF49.51525
aF177.46883333333332
aF324.98766666666666
aF17.795166666666667
aF10.822666666666667
aF10.79975
aF27.596166666666665
aF129.08041666666665
aF12.710833333333333
aF82.80233333333334
aF31.888083333333334
aF30.62091666666667
asS'mgh176'
p579
(lp580
F16.58833333333333
aF15.588333333333333
aF167.06416666666667
aF13.088333333333333
aF40.4965
aF90.49858333333333
aF13.705833333333334
asS'mgh177'
p581
(lp582
sS'mgh174'
p583
(lp584
sS'mgh175'
p585
(lp586
F16.719749999999998
aF12.754999999999999
aF69.42166666666667
aF83.61175
aF12.671666666666665
aF16.005
aF22.33833333333333
aF46.33833333333334
aF28.33833333333333
aF15.327083333333333
aF108.87316666666668
aF13.004999999999999
aF50.33833333333334
aF41.61683333333334
aF17.10225
aF22.171666666666667
aF11.955583333333333
aF72.08883333333333
aF11.610666666666667
aF13.78225
aF11.312583333333333
aF19.464
aF15.004999999999999
asS'mgh178'
p587
(lp588
F14.899083333333333
aF13.09775
aF17.124333333333333
aF11.728833333333334
aF84.89675000000001
aF10.915833333333333
aF14.583666666666666
aF14.769499999999999
aF18.271250000000002
aF11.501166666666668
aF18.956500000000002
aF115.44149999999999
aF22.949583333333333
aF116.06649999999999
aF37.241499999999995
aF80.788
aF82.01091666666666
aF91.69566666666667
aF111.17166666666667
aF11.873083333333334
aF96.27766666666666
aF148.04408333333333
aF61.094833333333334
asS'mgh179'
p589
(lp590
F43.039750000000005
aF67.77883333333334
aF12.421666666666665
aF21.421666666666667
aF18.755
aF10.213249999999999
aF51.91233333333333
aF26.728583333333333
aF57.67166666666667
aF17.671666666666667
aF18.905916666666666
aF27.255
aF19.306500000000003
aF10.338333333333333
aF26.071250000000003
aF12.671666666666665
asS'bwh5'
p591
(lp592
sS'bwh4'
p593
(lp594
F18.255
aF24.8415
aF14.754999999999999
aF14.254999999999999
aF16.421666666666667
aF10.081083333333334
aF13.838333333333333
asS'bwh7'
p595
(lp596
F20.171666666666667
aF10.754999999999999
aF12.004999999999999
aF37.812416666666664
aF22.671666666666667
aF11.108
aF19.08833333333333
aF57.67166666666667
asS'bwh6'
p597
(lp598
sS'bwh1'
p599
(lp600
F45.58833333333334
aF11.088333333333333
asS'bwh2'
p601
(lp602
sS'ynh18'
p603
(lp604
sS'ynh16'
p605
(lp606
F60.42166666666667
aF161.3075
aF15.371666666666666
aF18.90275
aF53.55741666666667
aF17.182416666666665
asS'bwh77'
p607
(lp608
sS'bwh76'
p609
(lp610
sS'bwh75'
p611
(lp612
sS'bwh73'
p613
(lp614
sS'bwh72'
p615
(lp616
F51.2385
aF59.810249999999996
aF57.65133333333333
aF22.434250000000002
aF26.325
aF18.61375
aF81.82325
aF11.970666666666666
aF15.490333333333332
aF32.120666666666665
aF12.813666666666668
aF110.69458333333334
aF56.440083333333334
asS'bwh71'
p617
(lp618
sS'bwh79'
p619
(lp620
sS'bwh78'
p621
(lp622
sS'mgh34'
p623
(lp624
F66.42166666666667
aF14.088333333333333
aF153.505
aF51.08833333333334
aF275.4216666666667
aF70.67166666666667
aF172.67166666666665
aF238.28783333333334
aF141.26983333333334
asS'mgh35'
p625
(lp626
F17.277083333333334
aF119.09516666666667
aF37.126
aF20.478333333333335
aF92.6455
aF112.51675
aF72.48141666666668
aF78.85225
aF193.54458333333332
aF10.46875
aF10.669833333333335
aF36.43925
aF35.33741666666666
aF178.26216666666667
aF10.404166666666667
aF151.94216666666668
aF151.30633333333333
asS'mgh36'
p627
(lp628
sS'mgh30'
p629
(lp630
sS'mgh31'
p631
(lp632
F11.486833333333333
aF13.108666666666666
aF15.53725
aF33.00483333333333
aF10.718416666666666
aF50.42274999999999
aF53.84475
aF37.38458333333333
aF13.534333333333333
aF16.821083333333334
aF24.505
aF39.64175
aF25.628916666666665
aF62.99341666666667
aF24.118166666666664
aF59.255
aF26.087249999999997
aF21.605833333333333
aF32.30475
aF24.361833333333333
aF18.1005
aF22.472416666666668
aF73.89741666666667
aF70.50058333333332
aF73.25500000000001
aF96.92166666666667
aF19.639583333333334
aF62.755
aF13.430833333333334
aF15.045916666666667
aF22.696833333333334
asS'mgh32'
p633
(lp634
F10.529166666666667
aF171.63208333333333
aF24.22058333333333
aF11.468666666666667
asS'mgh33'
p635
(lp636
sS'mgh38'
p637
(lp638
sS'mgh39'
p639
(lp640
sS'ynh48'
p641
(lp642
F45.22691666666666
aF18.483083333333333
aF13.466916666666666
aF140.55883333333335
aF14.9395
aF27.459833333333332
aF119.99641666666666
aF84.11275
aF102.98558333333334
aF12.060083333333333
aF198.46675
aF245.0883333333333
aF78.08833333333334
aF98.92166666666667
aF117.75500000000001
asS'ynh49'
p643
(lp644
sS'bi38'
p645
(lp646
sS'bi36'
p647
(lp648
F11.972583333333334
asS'bi37'
p649
(lp650
F11.275833333333333
aF332.63691666666665
aF12.772833333333333
aF69.28366666666668
aF82.65191666666666
aF72.04941666666667
aF313.6825
aF94.25500000000001
aF10.573666666666666
aF16.3785
aF10.965666666666667
aF10.528583333333334
aF16.61025
aF209.3430833333333
aF15.01225
aF10.812666666666667
aF61.774499999999996
aF37.572
aF46.51208333333333
aF40.09358333333333
aF34.70316666666667
aF60.22183333333333
aF10.303916666666668
asS'bi34'
p651
(lp652
sS'bi35'
p653
(lp654
F28.276999999999997
aF11.127833333333333
aF56.828833333333336
aF193.505
aF59.83833333333334
aF49.02758333333334
asS'bi32'
p655
(lp656
sS'bi30'
p657
(lp658
F16.2585
aF37.33833333333334
aF19.017
aF18.921666666666667
aF11.96
aF15.779916666666667
asS'ynh139'
p659
(lp660
F52.01441666666666
aF32.66833333333333
aF10.740833333333335
aF68.89008333333332
aF23.045583333333333
aF25.164416666666668
aF25.375333333333334
aF54.12375
aF58.23516666666667
asS'ynh138'
p661
(lp662
F55.17358333333333
aF18.71216666666667
aF30.421666666666667
aF12.484083333333333
aF19.75433333333333
aF63.92166666666667
aF17.281083333333335
aF74.83833333333334
aF25.615166666666667
aF18.83833333333333
aF20.020166666666668
aF76.08833333333334
aF73.87916666666666
aF28.671666666666667
aF71.08833333333334
aF24.33833333333333
aF47.33833333333334
asS'ynh132'
p663
(lp664
sS'ynh130'
p665
(lp666
sS'ynh137'
p667
(lp668
sS'ynh134'
p669
(lp670
F31.83833333333333
aF118.28166666666667
aF15.978333333333333
asS'bi8'
p671
(lp672
sS'bi9'
p673
(lp674
F307.08075
aF18.83175
aF12.681083333333333
aF43.63783333333333
aF27.68208333333333
aF157.12766666666667
aF15.209083333333332
aF13.2775
aF19.699416666666664
aF16.708583333333333
aF22.366249999999997
aF10.684083333333332
aF12.991166666666667
aF17.807583333333334
aF18.835416666666667
aF35.15691666666667
aF25.910083333333333
aF19.10891666666667
aF22.867583333333336
aF10.02025
aF22.786166666666666
aF12.931833333333334
aF28.81225
aF243.31591666666665
aF20.18975
aF104.51075
aF21.56225
aF201.94916666666668
aF90.75725000000001
asS'bi6'
p675
(lp676
F298.165
aF11.342083333333333
aF69.36416666666668
asS'bi4'
p677
(lp678
sS'bi2'
p679
(lp680
sS'bi3'
p681
(lp682
sS'bi1'
p683
(lp684
sS'bwh115'
p685
(lp686
F29.421666666666667
aF48.755
aF16.58833333333333
aF33.58833333333333
aF43.92166666666667
aF85.17166666666667
aF22.505
aF25.58833333333333
aF11.754999999999999
aF25.671666666666667
aF43.32541666666667
aF25.671666666666667
aF20.005
aF21.171666666666667
aF74.92166666666667
aF33.92166666666667
aF41.17166666666667
aF10.171666666666665
aF68.50500000000001
aF16.421666666666667
aF63.005
aF48.02908333333333
aF131.67166666666668
aF18.33833333333333
asS'bwh114'
p687
(lp688
F61.75658333333333
aF48.505
aF39.54258333333333
aF18.421666666666667
aF46.92166666666667
asS'bwh117'
p689
(lp690
F222.58849999999998
aF22.360083333333332
aF22.146250000000002
aF12.63425
aF10.659416666666667
aF133.547
aF17.671666666666667
aF13.975166666666667
aF83.18358333333335
aF11.258000000000001
aF79.69225
aF112.06925
aF15.780833333333334
aF16.797666666666668
aF20.83975
aF10.969249999999999
aF15.947416666666667
aF23.531
asS'bwh116'
p691
(lp692
F19.171666666666667
aF13.588333333333333
aF20.255
aF325.26191666666665
asS'bwh111'
p693
(lp694
F11.557666666666668
aF87.83833333333334
aF99.25500000000001
aF162.005
aF224.17166666666665
aF63.40833333333333
aF63.08833333333334
aF45.83833333333334
aF212.17166666666665
aF25.08833333333333
aF56.755
aF11.754999999999999
aF17.255
aF24.671666666666667
aF21.05891666666667
aF10.45
aF27.498833333333334
aF53.236666666666665
aF151.1796666666667
aF10.921666666666665
aF20.922583333333332
aF69.66766666666668
aF35.79975
aF10.670166666666667
aF12.107249999999999
aF30.138666666666666
aF36.55925
aF11.270166666666666
aF60.478500000000004
aF12.304583333333333
aF52.373666666666665
aF11.546916666666668
aF18.779166666666665
aF36.79291666666666
aF45.489333333333335
aF11.465916666666667
aF68.89066666666666
aF63.64483333333333
aF47.291666666666664
aF109.97049999999999
aF21.6845
aF37.98258333333333
aF32.94833333333334
aF14.182333333333334
aF86.916
aF29.754250000000003
aF40.42166666666667
aF99.41758333333334
aF97.67166666666667
aF138.61533333333333
aF195.00658333333334
aF38.42166666666667
aF123.90833333333333
aF13.631166666666667
aF31.847083333333334
asS'bwh110'
p695
(lp696
sS'bwh113'
p697
(lp698
F176.88375
aF118.6185
aF12.846583333333333
aF30.594083333333334
aF65.15491666666667
aF43.127833333333335
aF87.92841666666666
aF21.3345
aF118.54925
aF15.65775
aF36.95708333333334
aF33.776916666666665
asS'bwh112'
p699
(lp700
F15.588333333333333
aF16.77125
aF10.518083333333333
aF27.784083333333335
aF18.00358333333333
aF12.662416666666667
aF20.005
aF27.36208333333333
aF34.58833333333334
aF20.005
aF30.171666666666667
asS'bwh119'
p701
(lp702
sS'ynh148'
p703
(lp704
sS'ynh149'
p705
(lp706
F10.689416666666666
asS'ynh146'
p707
(lp708
sS'ynh147'
p709
(lp710
sS'ynh144'
p711
(lp712
sS'ynh142'
p713
(lp714
sS'ynh141'
p715
(lp716
sS'bwh185'
p717
(lp718
F64.58833333333334
aF11.158833333333332
aF12.1755
aF13.504999999999999
aF25.771250000000002
aF12.060666666666666
aF12.386583333333334
aF10.754999999999999
aF37.67166666666667
aF18.24458333333333
aF31.921666666666667
aF124.19233333333334
aF53.755
aF98.57541666666665
aF48.97
aF28.421666666666667
aF18.15041666666667
aF44.87283333333333
aF67.33833333333334
aF37.54925
aF14.671666666666665
aF91.74208333333333
aF16.351833333333335
aF16.22775
aF58.18483333333334
asS'mgh129'
p719
(lp720
F20.19275
aF10.311416666666666
aF13.579916666666666
aF412.5914166666667
aF11.560333333333334
aF13.31375
aF128.0325
aF11.541500000000001
asS'mgh128'
p721
(lp722
sS'mgh125'
p723
(lp724
F181.77599999999998
aF27.753666666666668
aF13.935416666666667
aF10.38275
aF11.158333333333333
aF43.28733333333333
aF319.2875833333334
aF18.916166666666665
aF71.52974999999999
aF259.1671666666667
aF20.41075
aF149.825
aF18.947166666666664
aF239.20658333333333
aF20.680083333333336
aF12.075333333333333
aF159.96766666666664
aF262.49691666666666
aF29.474333333333334
aF41.00266666666666
aF25.049333333333333
aF13.017833333333334
aF23.124000000000002
asS'mgh124'
p725
(lp726
F19.671666666666667
aF392.6716666666667
aF255.575
aF32.85366666666667
aF27.277416666666667
aF12.981833333333332
aF120.27466666666666
aF23.972166666666666
aF42.600833333333334
aF18.656333333333336
asS'mgh127'
p727
(lp728
sS'mgh126'
p729
(lp730
sS'mgh121'
p731
(lp732
sS'mgh120'
p733
(lp734
F13.24425
aF27.255
aF12.639000000000001
aF96.32708333333333
aF226.8383333333333
aF22.8245
aF33.04125
aF107.896
aF115.11175
aF23.005
aF14.96975
aF15.651250000000001
asS'mgh123'
p735
(lp736
sS'mgh122'
p737
(lp738
sS'mgh78'
p739
(lp740
sS'mgh79'
p741
(lp742
F121.59233333333333
asS'ynh45'
p743
(lp744
F44.042249999999996
aF88.18724999999999
aF69.08833333333334
aF97.81891666666667
aF93.60216666666666
aF13.316666666666666
aF126.83033333333333
aF142.67166666666665
aF126.66591666666666
aF41.33833333333334
aF11.771583333333332
asS'ynh43'
p745
(lp746
sS'ynh41'
p747
(lp748
F121.58833333333334
aF23.58833333333333
aF11.171666666666665
aF12.921666666666665
aF11.588333333333333
aF78.00500000000001
aF13.004999999999999
aF47.25308333333333
aF32.505
aF12.671666666666665
aF13.338333333333333
aF83.00500000000001
aF31.08833333333333
aF50.255
aF28.059166666666666
aF237.95591666666667
aF12.183416666666666
aF22.1345
aF19.30275
asS'mgh70'
p749
(lp750
F24.841666666666665
aF25.025250000000003
aF15.730166666666666
aF12.36825
aF15.146333333333333
aF10.582916666666668
asS'mgh72'
p751
(lp752
F10.03575
asS'mgh74'
p753
(lp754
F13.561333333333332
aF65.79108333333333
aF92.70824999999999
aF222.99474999999998
aF16.7785
aF28.81775
aF117.54125
aF28.31625
asS'mgh75'
p755
(lp756
F27.073500000000003
aF21.35141666666667
aF29.517916666666668
aF32.97108333333333
aF30.344833333333334
aF59.075
aF18.255
aF149.5883333333333
aF32.505
aF121.58833333333334
aF108.33833333333334
asS'mgh76'
p757
(lp758
sS'mgh77'
p759
(lp760
sS'ynh4'
p761
(lp762
F12.838333333333333
aF208.8383333333333
aF71.65966666666667
aF48.33833333333334
asS'ynh9'
p763
(lp764
F23.978833333333334
aF10.754999999999999
aF39.44025
aF19.995166666666666
aF14.498
aF13.275
aF18.338083333333334
aF32.7505
aF22.412750000000003
aF324.1716666666667
aF77.18741666666666
aF106.40816666666666
asS'mgh96'
p765
(lp766
sS'mgh97'
p767
(lp768
F19.505
aF15.843416666666666
aF19.921666666666667
aF11.421666666666665
aF50.692750000000004
aF10.277833333333332
aF10.367583333333332
aF58.08833333333334
aF15.00175
aF58.33833333333334
aF86.72833333333332
aF20.090916666666665
aF34.57816666666667
aF14.865583333333332
aF11.041416666666667
aF13.627
aF53.26658333333333
aF36.6685
asS'mgh95'
p769
(lp770
F16.618000000000002
aF33.08975
aF10.975416666666666
aF18.048916666666667
aF31.684250000000002
aF10.164166666666667
aF19.66658333333333
aF52.537
aF22.721
aF26.023000000000003
aF83.67166666666667
aF17.45825
aF40.10466666666667
aF152.57533333333333
aF494.559
aF50.255
aF62.33833333333334
aF96.83833333333334
aF68.56483333333334
aF80.33833333333334
aF15.125416666666666
asS'bwh28'
p771
(lp772
F29.300416666666667
aF68.31641666666665
aF11.594416666666666
asS'mgh93'
p773
(lp774
F19.33833333333333
aF138.755
aF149.33783333333335
aF14.622166666666667
asS'mgh90'
p775
(lp776
sS'mgh91'
p777
(lp778
F13.467666666666666
aF10.05325
aF46.649499999999996
aF95.617
aF20.757083333333334
aF208.7945
aF60.290499999999994
aF25.744833333333336
aF15.0995
aF18.84191666666667
aF11.376416666666668
aF94.93533333333333
aF12.975833333333332
aF11.927833333333332
aF13.101083333333333
aF11.749083333333335
aF11.280333333333335
aF10.517583333333333
aF11.242333333333333
aF28.738083333333336
aF16.997
aF118.29241666666667
aF32.13625
aF12.1975
aF71.50033333333334
aF25.414166666666667
aF52.30566666666667
aF145.17166666666665
aF37.344166666666666
aF13.181416666666667
aF153.5883333333333
aF60.67166666666667
aF10.442833333333335
aF16.005
asS'bwh24'
p779
(lp780
F43.63516666666667
aF11.775583333333334
aF24.626666666666665
aF63.39066666666667
asS'bwh25'
p781
(lp782
F13.544083333333333
aF10.957166666666666
asS'bwh26'
p783
(lp784
sS'bwh27'
p785
(lp786
F11.184166666666666
aF52.064416666666666
aF21.747
aF13.954
aF17.22175
aF114.11
aF77.68425
aF19.151666666666664
aF34.358666666666664
aF16.345000000000002
asS'bwh20'
p787
(lp788
sS'bwh21'
p789
(lp790
sS'mgh98'
p791
(lp792
F98.42166666666667
aF24.31425
aF120.15008333333334
aF14.139999999999999
aF12.452499999999999
aF15.855500000000001
aF11.020583333333333
aF65.29308333333333
aF25.956916666666665
aF92.92691666666666
aF82.42166666666667
aF121.25500000000001
aF91.08833333333334
aF138.755
aF35.42166666666667
aF117.00500000000001
aF93.41991666666667
aF51.521166666666666
aF61.99708333333333
aF20.823916666666666
aF160.505
aF132.13341666666668
aF30.173083333333334
aF163.246
aF14.877
aF21.671666666666667
aF104.08833333333334
aF134.755
aF93.92166666666667
aF15.421666666666665
aF98.42166666666667
aF140.005
asS'bwh23'
p793
(lp794
sS'mgh8'
p795
(lp796
sS'mgh4'
p797
(lp798
sS'mgh5'
p799
(lp800
sS'mgh6'
p801
(lp802
F33.95275
aF125.488
asS'mgh7'
p803
(lp804
F17.421666666666667
aF22.75808333333333
asS'mgh1'
p805
(lp806
F16.505
aF19.448083333333333
aF18.306916666666666
aF21.709333333333333
aF37.41991666666667
aF28.122583333333335
aF187.30841666666666
asS'mgh3'
p807
(lp808
sS'bi98'
p809
(lp810
F14.811166666666667
aF10.49775
aF16.37275
aF46.61508333333334
aF34.790166666666664
aF14.031083333333333
asS'bi99'
p811
(lp812
sS'bi91'
p813
(lp814
F12.364916666666666
aF14.3785
aF26.400333333333332
aF168.84191666666666
aF18.241666666666667
aF20.89425
aF39.69316666666667
aF40.80233333333333
aF10.811333333333332
aF15.007
aF48.032916666666665
asS'bi92'
p815
(lp816
sS'bi93'
p817
(lp818
sS'bi95'
p819
(lp820
F12.882333333333333
aF12.539333333333333
aF12.347416666666668
aF46.33833333333334
aF22.314083333333333
aF13.942916666666667
aF20.719416666666667
aF17.498583333333332
aF13.623416666666666
aF13.124166666666667
aF21.737916666666667
aF10.841916666666666
aF30.06925
aF14.434916666666668
aF27.324333333333335
aF121.44391666666667
aF85.13916666666667
asS'bi96'
p821
(lp822
F18.71075
aF15.53
aF65.327
aF23.129416666666668
aF11.734333333333332
aF57.80591666666667
aF40.9855
aF11.862166666666667
aF122.56716666666667
aF69.67166666666667
aF19.916833333333333
aF52.236916666666666
aF38.669
aF59.533249999999995
aF37.571333333333335
asS'bi97'
p823
(lp824
F21.824416666666664
aF169.71883333333332
aF85.7915
asS'bi65'
p825
(lp826
sS'bi64'
p827
(lp828
F36.037666666666674
aF44.337583333333335
aF78.1535
aF17.09958333333333
aF16.653916666666667
aF94.33833333333334
aF11.593083333333334
aF42.3455
asS'bi67'
p829
(lp830
sS'bi66'
p831
(lp832
F30.82991666666667
aF17.928416666666667
aF13.460333333333333
aF62.32775
aF15.746666666666666
aF24.421666666666667
aF31.690083333333334
aF12.542083333333332
aF28.785916666666665
aF16.325
aF33.08833333333333
aF69.42166666666667
aF120.25500000000001
aF14.838333333333333
aF26.33833333333333
aF99.92166666666667
aF119.67166666666667
aF14.415333333333333
aF14.688333333333333
aF58.42166666666667
aF20.633333333333333
aF24.794833333333333
aF21.755
aF12.575
aF27.505
aF26.421666666666667
aF11.457083333333333
aF22.33833333333333
aF21.076833333333333
aF26.671666666666667
aF46.48966666666667
aF196.36833333333334
asS'bi61'
p833
(lp834
F42.44541666666667
aF89.72616666666666
aF77.50500000000001
aF46.27733333333333
asS'bi60'
p835
(lp836
F18.479
aF26.021166666666666
aF15.377666666666666
aF21.226916666666668
aF35.12075
aF17.029916666666665
aF29.921666666666667
aF13.745833333333334
aF63.28225
aF10.39575
aF17.778916666666664
asS'bi62'
p837
(lp838
F90.56583333333333
aF45.5665
aF158.3455
aF45.82891666666667
aF76.93366666666667
aF15.436666666666667
asS'ynh102'
p839
(lp840
sS'ynh100'
p841
(lp842
F140.3865
aF142.35333333333335
asS'ynh106'
p843
(lp844
sS'ynh107'
p845
(lp846
sS'ynh105'
p847
(lp848
sS'ynh108'
p849
(lp850
F26.880333333333333
aF30.949333333333335
aF223.96349999999998
asS'ynh109'
p851
(lp852
F13.387
aF53.58833333333334
aF19.821083333333334
aF22.755
aF20.880999999999997
aF82.42041666666667
aF18.58325
aF89.00500000000001
asS'ynh91'
p853
(lp854
F129.28283333333334
aF43.42166666666667
aF94.58833333333334
aF134.08833333333334
aF101.25500000000001
aF31.921666666666667
aF132.005
aF33.73675
aF15.3445
aF63.323166666666665
aF16.766166666666667
aF50.79566666666666
aF31.91058333333333
aF43.774
aF40.394999999999996
aF12.224083333333335
aF14.889999999999999
aF315.7175833333333
aF204.0883333333333
asS'ynh90'
p855
(lp856
sS'ynh93'
p857
(lp858
sS'ynh92'
p859
(lp860
F522.6583333333333
aF14.171666666666665
aF13.754999999999999
aF76.67166666666667
aF11.48725
asS'ynh95'
p861
(lp862
sS'ynh96'
p863
(lp864
F42.88416666666667
asS'bi112'
p865
(lp866
sS'ynh98'
p867
(lp868
sS'bi111'
p869
(lp870
sS'mgh160'
p871
(lp872
sS'mgh162'
p873
(lp874
F10.712083333333334
aF13.24775
aF50.2375
asS'mgh165'
p875
(lp876
sS'mgh164'
p877
(lp878
sS'mgh167'
p879
(lp880
F19.755
aF73.59158333333333
aF13.348083333333333
aF20.767916666666668
asS'mgh166'
p881
(lp882
F13.754999999999999
aF24.825
aF18.421666666666667
aF15.588333333333333
aF17.373333333333335
aF225.8383333333333
aF12.671666666666665
aF48.255
aF22.37591666666667
aF10.088333333333333
aF118.58833333333334
aF26.33833333333333
asS'mgh169'
p883
(lp884
sS'bwh60'
p885
(lp886
F27.0845
aF11.588333333333333
aF17.421666666666667
aF14.921666666666665
aF37.505
aF28.921666666666667
aF29.171666666666667
aF13.921666666666665
aF34.58833333333334
aF14.55375
aF48.75425
aF27.755
aF12.921666666666665
aF14.921666666666665
aF16.005
aF16.33833333333333
aF10.893916666666666
asS'bwh61'
p887
(lp888
F80.09241666666667
asS'bwh62'
p889
(lp890
F35.207750000000004
aF56.858666666666664
asS'bwh63'
p891
(lp892
sS'bwh64'
p893
(lp894
F19.416
aF11.689
aF35.888749999999995
aF35.58266666666667
aF15.637833333333333
aF13.965833333333334
aF19.220000000000002
aF39.378166666666665
aF11.441166666666668
aF13.276083333333334
aF271.3453333333333
aF27.816
asS'bwh65'
p895
(lp896
sS'bwh66'
p897
(lp898
F88.71466666666667
aF45.83833333333334
aF10.898833333333332
aF239.04283333333333
aF103.92166666666667
aF14.476750000000001
aF78.529
aF26.764166666666664
aF13.171666666666665
aF18.887833333333333
aF13.105500000000001
aF21.08833333333333
aF16.717833333333335
aF12.204583333333334
aF26.671666666666667
aF112.23616666666666
aF190.39491666666666
aF21.921666666666667
aF164.005
aF41.25966666666667
aF16.755
aF51.83833333333334
aF14.338333333333333
aF45.99033333333333
aF141.57924999999997
asS'bwh67'
p899
(lp900
sS'bwh68'
p901
(lp902
F13.652999999999999
aF12.655666666666667
aF17.725916666666667
aF28.172666666666665
aF10.159249999999998
aF15.7425
aF12.503583333333333
aF15.645916666666666
aF12.208666666666666
aF83.07216666666666
aF33.866
aF88.13883333333334
aF41.11033333333333
aF13.822583333333334
aF14.9545
aF22.76158333333333
aF12.2425
asS'bwh69'
p903
(lp904
sS'mgh41'
p905
(lp906
sS'mgh40'
p907
(lp908
sS'mgh43'
p909
(lp910
sS'mgh42'
p911
(lp912
sS'mgh45'
p913
(lp914
F13.296833333333332
aF11.835749999999999
aF19.69025
aF35.66716666666667
aF12.838
aF831.6716666666667
aF19.41875
aF22.2485
aF17.47191666666667
aF29.838083333333334
aF10.092833333333335
aF98.28091666666666
aF338.9941666666667
aF28.2315
aF22.587249999999997
aF17.33833333333333
aF15.043083333333334
aF28.64
aF54.83833333333334
asS'mgh44'
p915
(lp916
F67.37641666666667
aF77.28175
aF85.75500000000001
aF12.568166666666666
asS'mgh47'
p917
(lp918
sS'mgh46'
p919
(lp920
F14.8415
aF34.67583333333334
aF618.06425
as.